target datalayout = "e-m:e-p270:32:32-p271:32:32-p272:64:64-i64:64-i128:128-f80:128-n8:16:32:64-S128"
target triple = "x86_64-pc-linux-gnu"

%struct.ComplexMatrix4 = type { [4 x [4 x double]], [4 x [4 x double]] }

; Function Attrs: nounwind uwtable
define void @getConjugateMatrix4(ptr dead_on_unwind noalias writable sret(%struct.ComplexMatrix4) align 8 %0, ptr noundef byval(%struct.ComplexMatrix4) align 8 %1) #0 {
  %3 = alloca i32, align 4
  %4 = alloca i32, align 4
  %5 = alloca i32, align 4
  call void @llvm.lifetime.start.p0(i64 4, ptr %3) #8
  store i32 0, ptr %3, align 4, !tbaa !9
  br label %6

6:                                                ; preds = %51, %2
  %7 = load i32, ptr %3, align 4, !tbaa !9
  %8 = icmp slt i32 %7, 4
  br i1 %8, label %10, label %9

9:                                                ; preds = %6
  store i32 2, ptr %4, align 4
  call void @llvm.lifetime.end.p0(i64 4, ptr %3) #8
  br label %54

10:                                               ; preds = %6
  call void @llvm.lifetime.start.p0(i64 4, ptr %5) #8
  store i32 0, ptr %5, align 4, !tbaa !9
  br label %11

11:                                               ; preds = %47, %10
  %12 = load i32, ptr %5, align 4, !tbaa !9
  %13 = icmp slt i32 %12, 4
  br i1 %13, label %15, label %14

14:                                               ; preds = %11
  store i32 5, ptr %4, align 4
  call void @llvm.lifetime.end.p0(i64 4, ptr %5) #8
  br label %50

15:                                               ; preds = %11
  %16 = getelementptr inbounds nuw %struct.ComplexMatrix4, ptr %1, i32 0, i32 0
  %17 = load i32, ptr %3, align 4, !tbaa !9
  %18 = sext i32 %17 to i64
  %19 = getelementptr inbounds [4 x [4 x double]], ptr %16, i64 0, i64 %18
  %20 = load i32, ptr %5, align 4, !tbaa !9
  %21 = sext i32 %20 to i64
  %22 = getelementptr inbounds [4 x double], ptr %19, i64 0, i64 %21
  %23 = load double, ptr %22, align 8, !tbaa !18
  %24 = getelementptr inbounds nuw %struct.ComplexMatrix4, ptr %0, i32 0, i32 0
  %25 = load i32, ptr %3, align 4, !tbaa !9
  %26 = sext i32 %25 to i64
  %27 = getelementptr inbounds [4 x [4 x double]], ptr %24, i64 0, i64 %26
  %28 = load i32, ptr %5, align 4, !tbaa !9
  %29 = sext i32 %28 to i64
  %30 = getelementptr inbounds [4 x double], ptr %27, i64 0, i64 %29
  store double %23, ptr %30, align 8, !tbaa !18
  %31 = getelementptr inbounds nuw %struct.ComplexMatrix4, ptr %1, i32 0, i32 1
  %32 = load i32, ptr %3, align 4, !tbaa !9
  %33 = sext i32 %32 to i64
  %34 = getelementptr inbounds [4 x [4 x double]], ptr %31, i64 0, i64 %33
  %35 = load i32, ptr %5, align 4, !tbaa !9
  %36 = sext i32 %35 to i64
  %37 = getelementptr inbounds [4 x double], ptr %34, i64 0, i64 %36
  %38 = load double, ptr %37, align 8, !tbaa !18
  %39 = fneg double %38
  %40 = getelementptr inbounds nuw %struct.ComplexMatrix4, ptr %0, i32 0, i32 1
  %41 = load i32, ptr %3, align 4, !tbaa !9
  %42 = sext i32 %41 to i64
  %43 = getelementptr inbounds [4 x [4 x double]], ptr %40, i64 0, i64 %42
  %44 = load i32, ptr %5, align 4, !tbaa !9
  %45 = sext i32 %44 to i64
  %46 = getelementptr inbounds [4 x double], ptr %43, i64 0, i64 %45
  store double %39, ptr %46, align 8, !tbaa !18
  br label %47

47:                                               ; preds = %15
  %48 = load i32, ptr %5, align 4, !tbaa !9
  %49 = add nsw i32 %48, 1
  store i32 %49, ptr %5, align 4, !tbaa !9
  br label %11

50:                                               ; preds = %14
  br label %51

51:                                               ; preds = %50
  %52 = load i32, ptr %3, align 4, !tbaa !9
  %53 = add nsw i32 %52, 1
  store i32 %53, ptr %3, align 4, !tbaa !9
  br label %6

54:                                               ; preds = %9
  ret void
}