; Function Attrs: nofree norecurse nosync nounwind memory(argmem: readwrite) uwtable
define void @getConjugateMatrix4(ptr dead_on_unwind noalias writable writeonly sret(%struct.ComplexMatrix4) align 8 captures(none) %0, ptr noundef readonly byval(%struct.ComplexMatrix4) align 8 captures(none) %1) local_unnamed_addr #7 {
  %3 = getelementptr inbounds nuw i8, ptr %1, i64 128
  %4 = getelementptr inbounds nuw i8, ptr %0, i64 128
  br label %.preheader

.preheader:                                       ; preds = %2, %6
  %indvars.iv16 = phi i64 [ 0, %2 ], [ %indvars.iv.next17, %6 ]
  br label %7

5:                                                ; preds = %6
  ret void

6:                                                ; preds = %7
  %indvars.iv.next17 = add nuw nsw i64 %indvars.iv16, 1
  %exitcond19.not = icmp eq i64 %indvars.iv.next17, 4
  br i1 %exitcond19.not, label %5, label %.preheader

7:                                                ; preds = %.preheader, %7
  %indvars.iv = phi i64 [ 0, %.preheader ], [ %indvars.iv.next, %7 ]
  %8 = getelementptr inbounds nuw [4 x [4 x double]], ptr %1, i64 0, i64 %indvars.iv16, i64 %indvars.iv
  %9 = load double, ptr %8, align 8, !tbaa !13
  %10 = getelementptr inbounds nuw [4 x [4 x double]], ptr %0, i64 0, i64 %indvars.iv16, i64 %indvars.iv
  store double %9, ptr %10, align 8, !tbaa !13
  %11 = getelementptr inbounds nuw [4 x [4 x double]], ptr %3, i64 0, i64 %indvars.iv16, i64 %indvars.iv
  %12 = load double, ptr %11, align 8, !tbaa !13
  %13 = fneg double %12
  %14 = getelementptr inbounds nuw [4 x [4 x double]], ptr %4, i64 0, i64 %indvars.iv16, i64 %indvars.iv
  store double %13, ptr %14, align 8, !tbaa !13
  %indvars.iv.next = add nuw nsw i64 %indvars.iv, 1
  %exitcond.not = icmp eq i64 %indvars.iv.next, 4
  br i1 %exitcond.not, label %6, label %7
}